(dp0
I1573890
Vquadrupel (quad)
p1
sI1585494
Venglish pale mild ale
p2
sI1539594
Vscottish gruit / ancient herbed ale
p3
sI1579042
S'bi\xc3\xa8re de garde'
p4
sI1586223
Venglish india pale ale (ipa)
p5
sI1586229
Vamerican blonde ale
p6
sI1574461
Vamerican malt liquor
p7
sI1584716
Vwinter warmer
p8
sI1586257
Veuro dark lager
p9
sI1564250
Vfaro
p10
sI1586269
Vamerican barleywine
p11
sI1584735
Valtbier
p12
sI1586274
Venglish strong ale
p13
sI1539174
Vforeign / export stout
p14
sI1565799
Veisbock
p15
sI1586281
Vherbed / spiced beer
p16
sI1576051
Vlow alcohol beer
p17
sI1586295
Vbelgian dark ale
p18
sI1586298
Vmunich dunkel lager
p19
sI1586300
Vgerman pilsener
p20
sI1586301
Vdortmunder / export lager
p21
sI1584766
Vkeller bier / zwickel bier
p22
sI1567878
Vwheatwine
p23
sI1586314
Vchile beer
p24
sI1586315
Venglish stout
p25
sI1586319
Venglish dark mild ale
p26
sI1586593
Virish red ale
p27
sI1578135
Vmunich helles lager
p28
sI1576090
Vbraggot
p29
sI1585307
Vflanders oud bruin
p30
sI1586339
Vweizenbock
p31
sI1586340
Vrauchbier
p32
sI1576102
Vberliner weissbier
p33
sI1578157
Vamerican dark wheat ale
p34
sI1586351
Vamerican amber / red ale
p35
sI1586352
S'm\xc3\xa4rzen / oktoberfest'
p36
sI1586357
Vflanders red ale
p37
sI1579706
Vamerican double / imperial pilsner
p38
sI1581258
Vbaltic porter
p39
sI1586376
Vamerican strong ale
p40
sI1586378
Vmilk / sweet stout
p41
sI1579739
Vcream ale
p42
sI1538780
Vgueuze
p43
sI1586400
Venglish pale ale
p44
sI1538786
Vroggenbier
p45
sI1586404
Vsaison / farmhouse ale
p46
sI1579751
Vscottish ale
p47
sI1586412
Venglish porter
p48
sI1585391
S'k\xc3\xb6lsch'
p49
sI1573112
Vblack & tan
p50
sI1586439
Vczech pilsener
p51
sI1586474
Vtripel
p52
sI1585967
Vrye beer
p53
sI1586497
Vbelgian strong dark ale
p54
sI1586498
Vrussian imperial stout
p55
sI1586504
Vamerican amber / red lager
p56
sI1586508
Voatmeal stout
p57
sI1586510
Vwitbier
p58
sI1578109
Vlight lager
p59
sI1586513
Vamerican brown ale
p60
sI1566036
Vkristalweizen
p61
sI1586518
Vamerican pale wheat ale
p62
sI1586519
Venglish brown ale
p63
sI1566567
Vjapanese rice lager
p64
sI1586541
Vamerican stout
p65
sI1586546
Vdubbel
p66
sI1586550
Vcalifornia common / steam beer
p67
sI1586551
Vlambic - fruit
p68
sI1586043
Vamerican wild ale
p69
sI1586564
Vamerican ipa
p70
sI1586565
Vamerican pale ale (apa)
p71
sI1586567
Vamerican pale lager
p72
sI1586568
Vbock
p73
sI1586570
Vamerican double / imperial stout
p74
sI1586327
Venglish bitter
p75
sI1576845
Vamerican adjunct lager
p76
sI1579919
Venglish barleywine
p77
sI1539473
Vgose
p78
sI1586067
Vold ale
p79
sI1586582
Virish dry stout
p80
sI1538967
Vsahti
p81
sI1586586
Vextra special / strong bitter (esb)
p82
sI1586587
Vmaibock / helles bock
p83
sI1586591
Vbelgian ipa
p84
sI1540001
Vkvass
p85
sI1586594
Vamerican porter
p86
sI1586595
Vhefeweizen
p87
sI1586598
Vbelgian strong pale ale
p88
sI1586599
Vamerican double / imperial ipa
p89
sI1586090
Vdoppelbock
p90
sI1586099
Vschwarzbier
p91
sI1586613
Vpumpkin ale
p92
sI1585592
Vamerican black ale
p93
sI1569214
S'bi\xc3\xa8re de champagne / bi\xc3\xa8re brut'
p94
sI1586112
Veuro pale lager
p95
sI1426369
Vhapposhu
p96
sI1575879
Vlambic - unblended
p97
sI1586142
Vscotch ale / wee heavy
p98
sI1586159
Vfruit / vegetable beer
p99
sI1586163
Vsmoked beer
p100
sI1586164
Vvienna lager
p101
sI1577975
Veuro strong lager
p102
sI1586168
Vdunkelweizen
p103
sI1586170
Vbelgian pale ale
p104
s.